; Function Attrs: mustprogress uwtable
define void @_ZN6Assimp8Exporter12SetIOHandlerEPNS_8IOSystemE(ptr noundef nonnull readonly align 8 captures(none) dereferenceable(8) %0, ptr noundef %1) local_unnamed_addr #1 align 2 {
  %.not = icmp eq ptr %1, null
  %3 = load ptr, ptr %0, align 8
  %4 = getelementptr inbounds nuw i8, ptr %3, i64 24
  %5 = zext i1 %.not to i8
  store i8 %5, ptr %4, align 8
  %6 = load ptr, ptr %0, align 8
  %7 = getelementptr inbounds nuw i8, ptr %6, i64 8
  tail call void @_ZNSt12__shared_ptrIN6Assimp8IOSystemELN9__gnu_cxx12_Lock_policyE2EE5resetIS1_EENSt9enable_ifIXsr21__sp_is_constructibleIS1_T_EE5valueEvE4typeEPS7_(ptr noundef nonnull align 8 dereferenceable(16) %7, ptr noundef %1)
  ret void
}